; Function Attrs: mustprogress nounwind uwtable
define hidden void @_ZN10sls_engineD2Ev(ptr noundef nonnull align 8 dereferenceable(1512) %this) unnamed_addr #4 align 2 personality ptr @__gxx_personality_v0 {
entry:
  %m_mpz_manager = getelementptr inbounds i8, ptr %this, i64 72
  %m_zero = getelementptr inbounds i8, ptr %this, i64 704
  invoke void @_ZN11mpz_managerILb0EE3delEPS0_R3mpz(ptr noundef nonnull %m_mpz_manager, ptr noundef nonnull align 8 dereferenceable(16) %m_zero)
          to label %invoke.cont unwind label %terminate.lpad

invoke.cont:                                      ; preds = %entry
  %m_one = getelementptr inbounds i8, ptr %this, i64 720
  invoke void @_ZN11mpz_managerILb0EE3delEPS0_R3mpz(ptr noundef nonnull %m_mpz_manager, ptr noundef nonnull align 8 dereferenceable(16) %m_one)
          to label %invoke.cont3 unwind label %terminate.lpad

invoke.cont3:                                     ; preds = %invoke.cont
  %m_two = getelementptr inbounds i8, ptr %this, i64 736
  invoke void @_ZN11mpz_managerILb0EE3delEPS0_R3mpz(ptr noundef nonnull %m_mpz_manager, ptr noundef nonnull align 8 dereferenceable(16) %m_two)
          to label %invoke.cont5 unwind label %terminate.lpad

invoke.cont5:                                     ; preds = %invoke.cont3
  %m_assertions = getelementptr inbounds i8, ptr %this, i64 1448
  %0 = load ptr, ptr %m_assertions, align 8
  %tobool.not.i.i.i = icmp eq ptr %0, null
  br i1 %tobool.not.i.i.i, label %_ZN10ptr_vectorI4exprED2Ev.exit, label %if.then.i.i.i

if.then.i.i.i:                                    ; preds = %invoke.cont5
  %add.ptr.i.i.i.i = getelementptr inbounds i8, ptr %0, i64 -8
  invoke void @_ZN6memory10deallocateEPv(ptr noundef nonnull %add.ptr.i.i.i.i)
          to label %_ZN10ptr_vectorI4exprED2Ev.exit unwind label %terminate.lpad.i.i

terminate.lpad.i.i:                               ; preds = %if.then.i.i.i
  %1 = landingpad { ptr, i32 }
          catch ptr null
  %2 = extractvalue { ptr, i32 } %1, 0
  tail call void @__clang_call_terminate(ptr %2) #23
  unreachable

_ZN10ptr_vectorI4exprED2Ev.exit:                  ; preds = %invoke.cont5, %if.then.i.i.i
  %m_evaluator = getelementptr inbounds i8, ptr %this, i64 1184
  tail call void @_ZN13sls_evaluatorD2Ev(ptr noundef nonnull align 8 dereferenceable(264) %m_evaluator) #22
  %m_tracker = getelementptr inbounds i8, ptr %this, i64 784
  tail call void @_ZN11sls_trackerD2Ev(ptr noundef nonnull align 8 dereferenceable(400) %m_tracker) #22
  %m_powers = getelementptr inbounds i8, ptr %this, i64 672
  tail call void @_ZN6powersD2Ev(ptr noundef nonnull align 8 dereferenceable(32) %m_powers) #22
  tail call void @_ZN11mpz_managerILb0EED1Ev(ptr noundef nonnull align 8 dereferenceable(600) %m_mpz_manager) #22
  ret void

terminate.lpad:                                   ; preds = %invoke.cont3, %invoke.cont, %entry
  %3 = landingpad { ptr, i32 }
          catch ptr null
  %4 = extractvalue { ptr, i32 } %3, 0
  tail call void @__clang_call_terminate(ptr %4) #23
  unreachable
}